target datalayout = "e-m:e-p270:32:32-p271:32:32-p272:64:64-i64:64-i128:128-f80:128-n8:16:32:64-S128"
target triple = "x86_64-pc-linux-gnu"

%struct.lean_array_object = type { %struct.lean_object, i64, i64, [0 x ptr] }
%struct.lean_object = type { i32, i32 }

@.str.1 = private unnamed_addr constant [43 x i8] c"invalid range for Expr.instantiateRevRange\00", align 1

; Function Attrs: inlinehint mustprogress nounwind uwtable
define internal noundef ptr @_ZL13lean_to_arrayP11lean_object(ptr noundef %0) #6 {
  %2 = alloca ptr, align 8
  store ptr %0, ptr %2, align 8, !tbaa !16
  %3 = load ptr, ptr %2, align 8, !tbaa !16
  ret ptr %3
}

; Function Attrs: inlinehint mustprogress nounwind uwtable
define internal noundef ptr @_ZL15lean_array_cptrP11lean_object(ptr noundef %0) #6 {
  %2 = alloca ptr, align 8
  store ptr %0, ptr %2, align 8, !tbaa !16
  %3 = load ptr, ptr %2, align 8, !tbaa !16
  %4 = call noundef ptr @_ZL13lean_to_arrayP11lean_object(ptr noundef %3)
  %5 = getelementptr inbounds nuw %struct.lean_array_object, ptr %4, i32 0, i32 3
  %6 = getelementptr inbounds [0 x ptr], ptr %5, i64 0, i64 0
  ret ptr %6
}

; Function Attrs: inlinehint mustprogress nounwind uwtable
define internal noundef i64 @_ZL10lean_unboxP11lean_object(ptr noundef %0) #6 {
  %2 = alloca ptr, align 8
  store ptr %0, ptr %2, align 8, !tbaa !16
  %3 = load ptr, ptr %2, align 8, !tbaa !16
  %4 = ptrtoint ptr %3 to i64
  %5 = lshr i64 %4, 1
  ret i64 %5
}

; Function Attrs: inlinehint mustprogress uwtable
define internal noundef i64 @_ZL15lean_array_sizeP11lean_object(ptr noundef %0) #4 {
  %2 = alloca ptr, align 8
  store ptr %0, ptr %2, align 8, !tbaa !16
  %3 = load ptr, ptr %2, align 8, !tbaa !16
  %4 = call noundef ptr @_ZL13lean_to_arrayP11lean_object(ptr noundef %3)
  %5 = getelementptr inbounds nuw %struct.lean_array_object, ptr %4, i32 0, i32 1
  %6 = load i64, ptr %5, align 8, !tbaa !31
  ret i64 %6
}

; Function Attrs: alwaysinline mustprogress nounwind uwtable
define internal noundef zeroext i1 @_ZL14lean_is_scalarP11lean_object(ptr noundef %0) #7 {
  %2 = alloca ptr, align 8
  store ptr %0, ptr %2, align 8, !tbaa !16
  %3 = load ptr, ptr %2, align 8, !tbaa !16
  %4 = ptrtoint ptr %3 to i64
  %5 = and i64 %4, 1
  %6 = icmp eq i64 %5, 1
  ret i1 %6
}

; Function Attrs: mustprogress uwtable
define ptr @lean_expr_instantiate_rev_range(ptr noundef %0, ptr noundef %1, ptr noundef %2, ptr noundef %3) #0 {
  %5 = alloca ptr, align 8
  %6 = alloca ptr, align 8
  %7 = alloca ptr, align 8
  %8 = alloca ptr, align 8
  %9 = alloca i64, align 8
  %10 = alloca i64, align 8
  %11 = alloca i64, align 8
  store ptr %0, ptr %5, align 8, !tbaa !16
  store ptr %1, ptr %6, align 8, !tbaa !16
  store ptr %2, ptr %7, align 8, !tbaa !16
  store ptr %3, ptr %8, align 8, !tbaa !16
  %12 = load ptr, ptr %6, align 8, !tbaa !16
  %13 = call noundef zeroext i1 @_ZL14lean_is_scalarP11lean_object(ptr noundef %12)
  br i1 %13, label %14, label %17

14:                                               ; preds = %4
  %15 = load ptr, ptr %7, align 8, !tbaa !16
  %16 = call noundef zeroext i1 @_ZL14lean_is_scalarP11lean_object(ptr noundef %15)
  br i1 %16, label %18, label %17

17:                                               ; preds = %14, %4
  call void @lean_internal_panic(ptr noundef @.str.1) #16
  unreachable

18:                                               ; preds = %14
  call void @llvm.lifetime.start.p0(i64 8, ptr %9) #15
  %19 = load ptr, ptr %8, align 8, !tbaa !16
  %20 = call noundef i64 @_ZL15lean_array_sizeP11lean_object(ptr noundef %19)
  store i64 %20, ptr %9, align 8, !tbaa !31
  call void @llvm.lifetime.start.p0(i64 8, ptr %10) #15
  %21 = load ptr, ptr %6, align 8, !tbaa !16
  %22 = call noundef i64 @_ZL10lean_unboxP11lean_object(ptr noundef %21)
  store i64 %22, ptr %10, align 8, !tbaa !31
  call void @llvm.lifetime.start.p0(i64 8, ptr %11) #15
  %23 = load ptr, ptr %7, align 8, !tbaa !16
  %24 = call noundef i64 @_ZL10lean_unboxP11lean_object(ptr noundef %23)
  store i64 %24, ptr %11, align 8, !tbaa !31
  %25 = load i64, ptr %10, align 8, !tbaa !31
  %26 = load i64, ptr %11, align 8, !tbaa !31
  %27 = icmp ugt i64 %25, %26
  br i1 %27, label %32, label %28

28:                                               ; preds = %18
  %29 = load i64, ptr %11, align 8, !tbaa !31
  %30 = load i64, ptr %9, align 8, !tbaa !31
  %31 = icmp ugt i64 %29, %30
  br i1 %31, label %32, label %33

32:                                               ; preds = %28, %18
  call void @lean_internal_panic(ptr noundef @.str.1) #16
  unreachable

33:                                               ; preds = %28
  %34 = load ptr, ptr %5, align 8, !tbaa !16
  %35 = load i64, ptr %11, align 8, !tbaa !31
  %36 = load i64, ptr %10, align 8, !tbaa !31
  %37 = sub i64 %35, %36
  %38 = load ptr, ptr %8, align 8, !tbaa !16
  %39 = call noundef ptr @_ZL15lean_array_cptrP11lean_object(ptr noundef %38)
  %40 = load i64, ptr %10, align 8, !tbaa !31
  %41 = getelementptr inbounds nuw ptr, ptr %39, i64 %40
  %42 = call noundef ptr @_ZN4leanL30lean_expr_instantiate_rev_coreEP11lean_objectmPS1_(ptr noundef %34, i64 noundef %37, ptr noundef %41)
  call void @llvm.lifetime.end.p0(i64 8, ptr %11) #15
  call void @llvm.lifetime.end.p0(i64 8, ptr %10) #15
  call void @llvm.lifetime.end.p0(i64 8, ptr %9) #15
  ret ptr %42
}