; Function Attrs: mustprogress uwtable
define noundef ptr @lean_expr_instantiate_rev_range(ptr noundef %0, ptr noundef %1, ptr noundef %2, ptr noundef %3) local_unnamed_addr #0 {
  %5 = ptrtoint ptr %1 to i64
  %6 = and i64 %5, 1
  %.not = icmp eq i64 %6, 0
  br i1 %.not, label %10, label %7

7:                                                ; preds = %4
  %8 = ptrtoint ptr %2 to i64
  %9 = and i64 %8, 1
  %.not14 = icmp eq i64 %9, 0
  br i1 %.not14, label %10, label %11

10:                                               ; preds = %7, %4
  tail call void @lean_internal_panic(ptr noundef nonnull @.str.1) #14
  unreachable

11:                                               ; preds = %7
  %12 = getelementptr i8, ptr %3, i64 8
  %.val = load i64, ptr %12, align 8, !tbaa !24
  %13 = lshr i64 %5, 1
  %14 = lshr i64 %8, 1
  %15 = icmp samesign ugt i64 %13, %14
  %16 = icmp ugt i64 %14, %.val
  %or.cond = or i1 %15, %16
  br i1 %or.cond, label %17, label %18

17:                                               ; preds = %11
  tail call void @lean_internal_panic(ptr noundef nonnull @.str.1) #14
  unreachable

18:                                               ; preds = %11
  %19 = sub nuw nsw i64 %14, %13
  %20 = getelementptr inbounds nuw i8, ptr %3, i64 24
  %21 = getelementptr inbounds nuw ptr, ptr %20, i64 %13
  %22 = tail call fastcc noundef ptr @_ZN4leanL30lean_expr_instantiate_rev_coreEP11lean_objectmPS1_(ptr noundef %0, i64 noundef %19, ptr noundef nonnull %21)
  ret ptr %22
}